target datalayout = "e-m:e-p270:32:32-p271:32:32-p272:64:64-i64:64-i128:128-f80:128-n8:16:32:64-S128"
target triple = "x86_64-pc-linux-gnu"

%struct.pathspec = type { i32, i8, i32, i32, ptr }
%struct.pathspec_item = type { ptr, ptr, i32, i32, i32, i32, i32, i32, ptr, ptr }

; Function Attrs: nounwind uwtable
define internal void @add_pathspecs(ptr noundef %0, ptr noundef %1) #0 {
  %3 = alloca ptr, align 8
  %4 = alloca ptr, align 8
  %5 = alloca i32, align 4
  store ptr %0, ptr %3, align 8, !tbaa !229
  store ptr %1, ptr %4, align 8, !tbaa !189
  call void @llvm.lifetime.start.p0(i64 4, ptr %5) #9
  store i32 0, ptr %5, align 4, !tbaa !4
  br label %6

6:                                                ; preds = %23, %2
  %7 = load i32, ptr %5, align 4, !tbaa !4
  %8 = load ptr, ptr %4, align 8, !tbaa !189
  %9 = getelementptr inbounds nuw %struct.pathspec, ptr %8, i32 0, i32 0
  %10 = load i32, ptr %9, align 8, !tbaa !108
  %11 = icmp slt i32 %7, %10
  br i1 %11, label %12, label %26

12:                                               ; preds = %6
  %13 = load ptr, ptr %3, align 8, !tbaa !229
  %14 = load ptr, ptr %4, align 8, !tbaa !189
  %15 = getelementptr inbounds nuw %struct.pathspec, ptr %14, i32 0, i32 4
  %16 = load ptr, ptr %15, align 8, !tbaa !231
  %17 = load i32, ptr %5, align 4, !tbaa !4
  %18 = sext i32 %17 to i64
  %19 = getelementptr inbounds %struct.pathspec_item, ptr %16, i64 %18
  %20 = getelementptr inbounds nuw %struct.pathspec_item, ptr %19, i32 0, i32 1
  %21 = load ptr, ptr %20, align 8, !tbaa !232
  %22 = call ptr @strvec_push(ptr noundef %13, ptr noundef %21)
  br label %23

23:                                               ; preds = %12
  %24 = load i32, ptr %5, align 4, !tbaa !4
  %25 = add nsw i32 %24, 1
  store i32 %25, ptr %5, align 4, !tbaa !4
  br label %6, !llvm.loop !236

26:                                               ; preds = %6
  call void @llvm.lifetime.end.p0(i64 4, ptr %5) #9
  ret void
}